target datalayout = "e-m:e-p270:32:32-p271:32:32-p272:64:64-i64:64-i128:128-f80:128-n8:16:32:64-S128"
target triple = "x86_64-pc-linux-gnu"

%struct.JSThreadState = type { %struct.list_head, %struct.list_head, %struct.list_head, %struct.list_head, i32, i32, ptr, ptr }
%struct.list_head = type { ptr, ptr }
%struct.JSSharedArrayBufferFunctions = type { ptr, ptr, ptr, ptr }

@stderr = external global ptr, align 8
@.str.16 = private unnamed_addr constant [41 x i8] c"Could not allocate memory for the worker\00", align 1

; Function Attrs: nounwind uwtable
define internal void @init_list_head(ptr noundef %0) #0 {
  %2 = alloca ptr, align 8
  store ptr %0, ptr %2, align 8
  %3 = load ptr, ptr %2, align 8
  %4 = load ptr, ptr %2, align 8
  %5 = getelementptr inbounds %struct.list_head, ptr %4, i32 0, i32 0
  store ptr %3, ptr %5, align 8
  %6 = load ptr, ptr %2, align 8
  %7 = load ptr, ptr %2, align 8
  %8 = getelementptr inbounds %struct.list_head, ptr %7, i32 0, i32 1
  store ptr %6, ptr %8, align 8
  ret void
}

; Function Attrs: nounwind uwtable
define dso_local void @js_std_init_handlers(ptr noundef %0) #0 {
  %2 = alloca ptr, align 8
  %3 = alloca ptr, align 8
  %4 = alloca %struct.JSSharedArrayBufferFunctions, align 8
  store ptr %0, ptr %2, align 8
  %5 = call noalias ptr @malloc(i64 noundef 88) #11
  store ptr %5, ptr %3, align 8
  %6 = load ptr, ptr %3, align 8
  %7 = icmp ne ptr %6, null
  br i1 %7, label %11, label %8

8:                                                ; preds = %1
  %9 = load ptr, ptr @stderr, align 8
  %10 = call i32 (ptr, ptr, ...) @fprintf(ptr noundef %9, ptr noundef @.str.16) #12
  call void @exit(i32 noundef 1) #14
  unreachable

11:                                               ; preds = %1
  %12 = load ptr, ptr %3, align 8
  call void @llvm.memset.p0.i64(ptr align 8 %12, i8 0, i64 88, i1 false)
  %13 = load ptr, ptr %3, align 8
  %14 = getelementptr inbounds %struct.JSThreadState, ptr %13, i32 0, i32 0
  call void @init_list_head(ptr noundef %14)
  %15 = load ptr, ptr %3, align 8
  %16 = getelementptr inbounds %struct.JSThreadState, ptr %15, i32 0, i32 1
  call void @init_list_head(ptr noundef %16)
  %17 = load ptr, ptr %3, align 8
  %18 = getelementptr inbounds %struct.JSThreadState, ptr %17, i32 0, i32 2
  call void @init_list_head(ptr noundef %18)
  %19 = load ptr, ptr %3, align 8
  %20 = getelementptr inbounds %struct.JSThreadState, ptr %19, i32 0, i32 3
  call void @init_list_head(ptr noundef %20)
  %21 = load ptr, ptr %3, align 8
  %22 = getelementptr inbounds %struct.JSThreadState, ptr %21, i32 0, i32 5
  store i32 1, ptr %22, align 4
  %23 = load ptr, ptr %2, align 8
  %24 = load ptr, ptr %3, align 8
  call void @JS_SetRuntimeOpaque(ptr noundef %23, ptr noundef %24)
  call void @llvm.memset.p0.i64(ptr align 8 %4, i8 0, i64 32, i1 false)
  %25 = getelementptr inbounds %struct.JSSharedArrayBufferFunctions, ptr %4, i32 0, i32 0
  store ptr @js_sab_alloc, ptr %25, align 8
  %26 = getelementptr inbounds %struct.JSSharedArrayBufferFunctions, ptr %4, i32 0, i32 1
  store ptr @js_sab_free, ptr %26, align 8
  %27 = getelementptr inbounds %struct.JSSharedArrayBufferFunctions, ptr %4, i32 0, i32 2
  store ptr @js_sab_dup, ptr %27, align 8
  %28 = load ptr, ptr %2, align 8
  call void @JS_SetSharedArrayBufferFunctions(ptr noundef %28, ptr noundef %4)
  ret void
}