; Function Attrs: nounwind uwtable
define dso_local void @js_std_init_handlers(ptr noundef %0) local_unnamed_addr #0 {
  %2 = alloca %struct.JSSharedArrayBufferFunctions, align 8
  %calloc = tail call dereferenceable_or_null(88) ptr @calloc(i64 1, i64 88)
  %.not = icmp eq ptr %calloc, null
  br i1 %.not, label %3, label %6

3:                                                ; preds = %1
  %4 = load ptr, ptr @stderr, align 8
  %5 = tail call i64 @fwrite(ptr nonnull @.str.16, i64 40, i64 1, ptr %4) #32
  tail call void @exit(i32 noundef 1) #33
  unreachable

6:                                                ; preds = %1
  store ptr %calloc, ptr %calloc, align 8
  %7 = getelementptr inbounds i8, ptr %calloc, i64 8
  store ptr %calloc, ptr %7, align 8
  %8 = getelementptr inbounds i8, ptr %calloc, i64 16
  store ptr %8, ptr %8, align 8
  %9 = getelementptr inbounds i8, ptr %calloc, i64 24
  store ptr %8, ptr %9, align 8
  %10 = getelementptr inbounds i8, ptr %calloc, i64 32
  store ptr %10, ptr %10, align 8
  %11 = getelementptr inbounds i8, ptr %calloc, i64 40
  store ptr %10, ptr %11, align 8
  %12 = getelementptr inbounds i8, ptr %calloc, i64 48
  store ptr %12, ptr %12, align 8
  %13 = getelementptr inbounds i8, ptr %calloc, i64 56
  store ptr %12, ptr %13, align 8
  %14 = getelementptr inbounds i8, ptr %calloc, i64 68
  store i32 1, ptr %14, align 4
  tail call void @JS_SetRuntimeOpaque(ptr noundef %0, ptr noundef nonnull %calloc) #29
  %15 = getelementptr inbounds i8, ptr %2, i64 24
  store i64 0, ptr %15, align 8
  store ptr @js_sab_alloc, ptr %2, align 8
  %16 = getelementptr inbounds i8, ptr %2, i64 8
  store ptr @js_sab_free, ptr %16, align 8
  %17 = getelementptr inbounds i8, ptr %2, i64 16
  store ptr @js_sab_dup, ptr %17, align 8
  call void @JS_SetSharedArrayBufferFunctions(ptr noundef %0, ptr noundef nonnull %2) #29
  ret void
}